target datalayout = "e-m:e-p270:32:32-p271:32:32-p272:64:64-i64:64-i128:128-f80:128-n8:16:32:64-S128"
target triple = "x86_64-unknown-linux-gnu"

%struct.tm = type { i32, i32, i32, i32, i32, i32, i32, i32, i32, i64, ptr }

; Function Attrs: mustprogress nounwind uwtable
define linkonce_odr dso_local noundef i64 @_ZN2EA4StdC29DateTimeSecondsToTimeTSecondsEl(i64 noundef %dateTimeSeconds) #3 comdat {
entry:
  %dateTimeSeconds.addr = alloca i64, align 8
  store i64 %dateTimeSeconds, ptr %dateTimeSeconds.addr, align 8
  %0 = load i64, ptr %dateTimeSeconds.addr, align 8
  %sub = sub nsw i64 %0, 62135683200
  ret i64 %sub
}

; Function Attrs: mustprogress uwtable
define dso_local noundef zeroext i1 @_ZN2EA4StdC13IsDSTDateTimeEl(i64 noundef %dateTimeSeconds) #0 {
entry:
  %dateTimeSeconds.addr = alloca i64, align 8
  %timeTSeconds = alloca i64, align 8
  %time = alloca i64, align 8
  %pTime = alloca ptr, align 8
  store i64 %dateTimeSeconds, ptr %dateTimeSeconds.addr, align 8
  %0 = load i64, ptr %dateTimeSeconds.addr, align 8
  %call = call noundef i64 @_ZN2EA4StdC29DateTimeSecondsToTimeTSecondsEl(i64 noundef %0)
  store i64 %call, ptr %timeTSeconds, align 8
  %1 = load i64, ptr %timeTSeconds, align 8
  store i64 %1, ptr %time, align 8
  %call1 = call ptr @localtime(ptr noundef %time) #1
  store ptr %call1, ptr %pTime, align 8
  %2 = load ptr, ptr %pTime, align 8
  %tm_isdst = getelementptr inbounds %struct.tm, ptr %2, i32 0, i32 8
  %3 = load i32, ptr %tm_isdst, align 8
  %cmp = icmp sgt i32 %3, 0
  ret i1 %cmp
}