; Function Attrs: mustprogress nounwind uwtable
define dso_local noundef zeroext i1 @_ZN2EA4StdC13IsDSTDateTimeEl(i64 noundef %dateTimeSeconds) local_unnamed_addr #3 {
entry:
  %time = alloca i64, align 8
  %sub.i = add nsw i64 %dateTimeSeconds, -62135683200
  store i64 %sub.i, ptr %time, align 8
  %call1 = call ptr @localtime(ptr noundef nonnull %time) #19
  %tm_isdst = getelementptr inbounds nuw i8, ptr %call1, i64 32
  %0 = load i32, ptr %tm_isdst, align 8
  %cmp = icmp sgt i32 %0, 0
  ret i1 %cmp
}